(lp0
(iclm_utils
FaceModel
p1
(dp2
S'pose'
p3
(lp4
F-75.9872
aF-10.3627
aF435.345
aF0.215015
aF-0.0135321
aF-0.00573518
asS'pts_3d'
p5
(lp6
(lp7
F-154.3719466797238
aF-52.92436496733665
aF474.3665964308078
aa(lp8
F-154.4655032386904
aF-32.66619575657856
aF479.4533012306528
aa(lp9
F-152.7059921758168
aF-12.70479026126372
aF485.9544879408538
aa(lp10
F-148.2095312425313
aF7.412019312034547
aF489.9481983373822
aa(lp11
F-139.2592042022982
aF27.05426683446033
aF486.171523459121
aa(lp12
F-125.5713101401449
aF43.72029449764644
aF478.0399301533947
aa(lp13
F-110.9423959164715
aF56.58715673534896
aF467.3005258482696
aa(lp14
F-94.3849218040624
aF65.58699485762115
aF456.8162358084003
aa(lp15
F-76.6796177517519
aF67.48820781933516
aF451.1160163367267
aa(lp16
F-59.44942142029925
aF64.25743169217793
aF454.2316137757727
aa(lp17
F-44.12215770368498
aF53.81498571753686
aF460.3345788430023
aa(lp18
F-29.57739885661175
aF39.97783111982839
aF465.6588867060614
aa(lp19
F-17.99353263658925
aF23.61367053307632
aF465.0259991166387
aa(lp20
F-10.65960975680108
aF4.880055204818373
aF460.6945076191999
aa(lp21
F-6.579093163167697
aF-14.97407166983251
aF455.9442498869922
aa(lp22
F-3.680357024297897
aF-35.22717006252113
aF452.1387009940733
aa(lp23
F-2.051998825142816
aF-55.38943035032997
aF450.2037038741971
aa(lp24
F-139.7026045734577
aF-69.51308573029405
aF446.3084642730812
aa(lp25
F-129.5314495224914
aF-76.19897719130047
aF437.6731254581
aa(lp26
F-115.6804340150601
aF-76.71107272468326
aF428.7154626208997
aa(lp27
F-101.8919075939509
aF-73.33627499491541
aF421.193576683753
aa(lp28
F-89.69637326028663
aF-68.31560170848917
aF415.8884279685977
aa(lp29
F-61.02933662501842
aF-68.39689393888682
aF412.3138142757349
aa(lp30
F-48.56213833526435
aF-73.53984573691467
aF413.6393556537776
aa(lp31
F-36.78520727040197
aF-75.88869399182812
aF415.7849937904788
aa(lp32
F-25.14661859571893
aF-74.69547693702158
aF417.6221229497811
aa(lp33
F-16.3200237293818
aF-68.99940648810099
aF421.6082161050775
aa(lp34
F-75.26711679397158
aF-50.55090776567796
aF415.8073842383963
aa(lp35
F-75.13092310034791
aF-37.58451018948021
aF411.4703327887311
aa(lp36
F-74.96178545778699
aF-24.84853176040484
aF406.9163739111367
aa(lp37
F-74.8034698532034
aF-12.07443672189175
aF402.7720922988459
aa(lp38
F-90.30888301777063
aF-4.150580968081973
aF421.8898225132139
aa(lp39
F-83.0776714370145
aF-1.356343348868782
aF419.1552265854958
aa(lp40
F-75.66113983574401
aF0.7316192914438316
aF417.2097923630599
aa(lp41
F-68.08429076083294
aF-1.445823126685845
aF417.4264966895111
aa(lp42
F-61.26525227438523
aF-4.129092906039618
aF418.1112798026108
aa(lp43
F-124.8714824719197
aF-50.67918487465229
aF442.2583043953545
aa(lp44
F-116.1017654154448
aF-53.92606960457304
aF436.7791497091151
aa(lp45
F-105.8515995658116
aF-53.53235588492113
aF433.5219260882096
aa(lp46
F-97.60641222805413
aF-48.83514456366042
aF431.6579209587546
aa(lp47
F-106.2917606912006
aF-46.22125609413839
aF434.1877521556756
aa(lp48
F-116.295642465911
aF-46.49661444586636
aF437.6012871027519
aa(lp49
F-54.5802045289214
aF-48.72695950295056
aF423.6862478608113
aa(lp50
F-46.48685774218903
aF-53.07706166936731
aF422.4576775232864
aa(lp51
F-36.9724454293199
aF-52.94784121618206
aF422.28048799546
aa(lp52
F-29.56895131022741
aF-50.00998710615814
aF425.1878365646524
aa(lp53
F-36.49367912926456
aF-45.96870970625737
aF423.047469194834
aa(lp54
F-45.73504814713576
aF-45.90241329400173
aF423.1387746400861
aa(lp55
F-103.2136282682034
aF24.59551236900987
aF442.2786181977189
aa(lp56
F-91.96275266912971
aF19.37406171917216
aF430.218601305979
aa(lp57
F-82.33001193279947
aF16.71973983321527
aF423.9451140849216
aa(lp58
F-75.50445615791541
aF18.54528113690686
aF422.4533471562096
aa(lp59
F-68.44304238457765
aF16.60807688881726
aF421.7755204105669
aa(lp60
F-58.77142505946905
aF19.15244397284851
aF426.3029636295096
aa(lp61
F-49.93483854154841
aF23.33261416555813
aF434.475525999934
aa(lp62
F-58.47933166030875
aF31.3694698889367
aF429.7036999971674
aa(lp63
F-67.96409263675496
aF34.74856140038943
aF427.380190309126
aa(lp64
F-75.65004850059454
aF35.62978059409741
aF426.979750259373
aa(lp65
F-83.25250345786164
aF35.07698455931291
aF428.7053890440271
aa(lp66
F-92.9109987153599
aF32.06175953003228
aF433.8193395886534
aa(lp67
F-98.10771864125087
aF24.9661419539748
aF438.4334975160097
aa(lp68
F-82.75247385007293
aF23.79788579872102
aF427.1546010620294
aa(lp69
F-75.6451247712974
aF24.32079229427031
aF425.5052302857957
aa(lp70
F-68.41746029120647
aF23.50295754976376
aF425.0253352512546
aa(lp71
F-54.15542117148048
aF23.96050176295413
aF432.4980910790555
aa(lp72
F-68.66447012569398
aF24.61772550917074
aF425.4323181440133
aa(lp73
F-75.90141922982932
aF25.4932633542736
aF425.495291231242
aa(lp74
F-83.06138112518663
aF24.90122351531612
aF427.2983309351454
aasS'pts_2d'
p75
(lp76
(F155.9293574190766
F216.3236323464605
tp77
a(F158.3724480952405
F248.9008694808261
tp78
a(F164.3205341776735
F280.3920059750379
tp79
a(F173.124691938647
F311.3461270046307
tp80
a(F185.1696405239874
F341.7356820520389
tp81
a(F202.9903431395607
F368.5930584558345
tp82
a(F221.9415722113471
F390.8202863124787
tp83
a(F245.0390204985243
F407.680599521965
tp84
a(F272.5168000444326
F412.2020811309877
tp85
a(F301.8406805845213
F406.09801763583
tp86
a(F328.1139853518376
F387.6780523192413
tp87
a(F352.3620191179526
F364.389135901529
tp88
a(F370.9797957467383
F338.0844359959434
tp89
a(F382.6464019314746
F307.9446169708606
tp90
a(F389.1777999753286
F275.3685812351885
tp91
a(F393.8950862596927
F241.5657684493654
tp92
a(F396.5815494061613
F207.7260528839278
tp93
a(F165.2364635280954
F183.1865884895676
tp94
a(F178.0339219133322
F169.4248525457009
tp95
a(F197.6272537946348
F165.8007243503894
tp96
a(F218.5657737301127
F169.4134733030742
tp97
a(F238.244405419488
F176.8018106884292
tp98
a(F288.9874632283027
F175.5858555351246
tp99
a(F311.9484080670175
F166.6594859778007
tp100
a(F333.6462213287476
F163.1106909968177
tp101
a(F354.83964351894
F165.8557470397641
tp102
a(F370.9682654903818
F177.2567685133105
tp103
a(F264.2392133105702
F208.820328206289
tp104
a(F263.0564883174874
F231.4935236009264
tp105
a(F261.8356431495726
F254.2009119928571
tp106
a(F260.7088140846761
F277.5162487308092
tp107
a(F239.4565153057074
F292.6214486343434
tp108
a(F251.3480218645162
F297.5730768767019
tp109
a(F263.9872411541405
F301.3152003587331
tp110
a(F277.671354177101
F297.4022555980174
tp111
a(F290.1035647077465
F292.5933122852086
tp112
a(F188.2377539931537
F214.0561335350055
tp113
a(F200.6399249607623
F207.4027406519635
tp114
a(F216.8750070135891
F207.3881515614009
tp115
a(F230.410133541751
F215.1495741317695
tp116
a(F216.3955106457777
F220.159097306424
tp117
a(F200.6821862273157
F220.3099674014179
tp118
a(F303.383332351776
F213.7446168910852
tp119
a(F317.4706836645904
F205.7709248287215
tp120
a(F334.334323132903
F205.9608908272279
tp121
a(F347.8425496320649
F211.7860693460469
tp122
a(F335.3021555736028
F218.5043410251087
tp123
a(F318.936083937172
F218.6394345453591
tp124
a(F224.9740819110848
F341.7081756109469
tp125
a(F239.6813520092472
F333.7747978475825
tp126
a(F254.3502286071145
F329.5788404165912
tp127
a(F265.9536194951789
F332.9242529294887
tp128
a(F278.2947816922492
F329.5324338749862
tp129
a(F296.6027155445499
F333.6951281251709
tp130
a(F313.801522375815
F340.2772068320628
tp131
a(F297.9308329308761
F354.7519195595887
tp132
a(F280.7313239280062
F360.9794783221977
tp133
a(F267.1189058942956
F362.5845498043884
tp134
a(F254.3536442762471
F361.3655416792135
tp135
a(F239.3726542883186
F355.4293399421171
tp136
a(F232.1734324639479
F342.7079741205161
tp137
a(F254.7028283594632
F341.7844366060074
tp138
a(F266.6671064410487
F342.8680846260132
tp139
a(F279.2705023382406
F341.4733351175465
tp140
a(F306.088450524083
F341.5501864467902
tp141
a(F278.9505394913657
F343.3988988246728
tp142
a(F266.212234082199
F344.935744083979
tp143
a(F254.2095034456262
F343.7069753949535
tp144
asba(iclm_utils
EyeModel
p145
(dp146
S'iris_pts_3d'
p147
(lp148
(lp149
F-86.47427393008618
aF-38.10866705155205
aF331.4570070601478
aa(lp150
F-83.36401547394821
aF-41.38881064726068
aF330.756700521949
aa(lp151
F-79.62405143692176
aF-42.73535600292522
aF332.4875868821304
aa(lp152
F-77.38672104690694
aF-41.34288560368984
aF335.6357362210782
aa(lp153
F-77.99953635068793
aF-37.96609532164914
aF338.3570044924655
aa(lp154
F-81.25505813691574
aF-34.53917144087424
aF339.5341215314731
aa(lp155
F-84.98465605508274
aF-33.27664771989993
aF337.3264223364442
aa(lp156
F-87.16978337134147
aF-34.75539048087978
aF334.1782715809717
aasS'iris_pts_2d'
p157
(lp158
(F204.33146964428
F213.7701129260559
tp159
a(F210.969780788123
F206.1497229339256
tp160
a(F220.3901711408497
F203.6008613050675
tp161
a(F227.0743114584494
F207.6166186834663
tp162
a(F227.1067201615487
F215.8445928023608
tp163
a(F220.5149652476449
F223.7061109975821
tp164
a(F211.0480299769099
F226.013842565132
tp165
a(F204.3638887136171
F221.998091804889
tp166
asS'lids_pts_2d'
p167
(lp168
(F185.5118002812801
F209.5695538442377
tp169
a(F193.7653952242832
F208.0107219186632
tp170
a(F203.6410933603984
F208.9960977050761
tp171
a(F214.1507893602837
F209.493608666513
tp172
a(F222.8863856056484
F210.3338643945355
tp173
a(F227.5185417453296
F212.0008307210258
tp174
a(F228.3958884741003
F214.1224233494458
tp175
a(F222.89633460478
F219.0000812552465
tp176
a(F214.9323436390204
F221.6646251803413
tp177
a(F205.3786610764821
F221.7045682232087
tp178
a(F196.5592403151244
F218.9279825104869
tp179
a(F189.1135967596502
F214.6836451293302
tp180
asS'lids_pts_3d'
p181
(lp182
(lp183
F-95.57853978675331
aF-40.29690214737735
aF334.2090843881918
aa(lp184
F-91.22165560568695
aF-40.68868196817534
aF331.7398735225298
aa(lp185
F-86.58571336310642
aF-40.12875165115254
aF330.7172877139706
aa(lp186
F-82.15631938544821
aF-40.00916639475522
aF331.5442628300216
aa(lp187
F-78.97043385408014
aF-39.97983811123748
aF334.4058309300076
aa(lp188
F-77.71309797787653
aF-39.64883027630299
aF337.9193570902522
aa(lp189
F-78.11567058432358
aF-39.09221305109703
aF341.406464083469
aa(lp190
F-80.3467378824904
aF-36.74728710647782
aF340.2529997185152
aa(lp191
F-83.34616317552234
aF-35.27873568247967
aF337.7663261683878
aa(lp192
F-87.15107620027308
aF-35.06054977657885
aF335.8486151196976
aa(lp193
F-90.93160590371917
aF-36.23663594057989
aF335.2263554925148
aa(lp194
F-94.12735264502767
aF-38.08022944062108
aF334.7561217747746
aasg5
(lp195
g149
ag150
ag151
ag152
ag153
ag154
ag155
ag156
ag183
ag184
ag185
ag186
ag187
ag188
ag189
ag190
ag191
ag192
ag193
ag194
a(lp196
F-85.04680388594453
aF-37.05718122578251
aF335.2031330280443
aa(lp197
F-84.03853081391671
aF-36.39171774816876
aF336.630803852406
aa(lp198
F-82.29673481592067
aF-36.99566396286623
aF337.4052287424742
aa(lp199
F-80.85438718256735
aF-38.51834149043187
aF337.0726894852984
aa(lp200
F-80.5638747466371
aF-40.0548093250184
aF335.8283206737049
aa(lp201
F-81.58272879841553
aF-40.70193901677811
aF334.4011281067944
aa(lp202
F-83.30664423173614
aF-40.09360634444671
aF333.6268022945067
aa(lp203
F-84.73840771439434
aF-38.58926557036865
aF333.9588626587762
aasg75
(lp204
g159
ag160
ag161
ag162
ag163
ag164
ag165
ag166
ag169
ag170
ag171
ag172
ag173
ag174
ag175
ag176
ag177
ag178
ag179
ag180
a(F209.7120920730717
F217.0864375035193
tp205
a(F212.7655063377022
F218.9207048232776
tp206
a(F217.0669988073881
F217.7643213308722
tp207
a(F220.0958063985472
F214.2951742488058
tp208
a(F220.0779912225285
F210.5462370371315
tp209
a(F217.0249994513447
F208.7130643505645
tp210
a(F212.7249287404423
F209.8687379085606
tp211
a(F209.6957053937146
F213.3367836165257
tp212
asba(iclm_utils
EyeModel
p213
(dp214
g147
(lp215
(lp216
F-41.88190601778003
aF-46.28596712426971
aF389.7910666837628
aa(lp217
F-39.32448934800112
aF-49.53752069000198
aF388.1746752555087
aa(lp218
F-35.09379163626125
aF-50.8341751862803
aF388.4610847572939
aa(lp219
F-31.61882420576864
aF-49.42607921835672
aF390.4825208991001
aa(lp220
F-30.93052395637508
aF-46.09564087354707
aF393.054854901985
aa(lp221
F-33.48135399689288
aF-42.78408047410262
aF394.6712427681648
aa(lp222
F-37.78172293167662
aF-41.47371296316342
aF394.3848330696645
aa(lp223
F-41.69130883307441
aF-42.88103591273467
aF392.6613873405732
aasg157
(lp224
(F319.4147013666193
F210.9408133989738
tp225
a(F324.0203730663589
F204.2875723588971
tp226
a(F332.2445805771237
F201.8546956549568
tp227
a(F339.2697063629792
F205.0673015314142
tp228
a(F340.9805204592471
F212.0434966671984
tp229
a(F336.3748538617996
F218.6967357172615
tp230
a(F328.1506543286564
F221.1296122108273
tp231
a(F320.3678216577857
F218.0953921841658
tp232
asg167
(lp233
(F305.7037131261205
F211.8564332813522
tp234
a(F310.5572608945732
F207.5196766236727
tp235
a(F317.339197775638
F205.3340287651779
tp236
a(F327.063412487579
F205.2583770836429
tp237
a(F336.3253236562066
F206.9165592573238
tp238
a(F343.0436882686722
F208.8093936951508
tp239
a(F346.4252403623104
F212.3951039678392
tp240
a(F341.1130490691333
F216.5943619531553
tp241
a(F334.0219097646655
F219.082833075376
tp242
a(F326.0490927331168
F219.538091634438
tp243
a(F317.9313730257839
F218.0850534559364
tp244
a(F310.7944860909536
F215.3757650055646
tp245
asg181
(lp246
(lp247
F-49.55939153647677
aF-46.32570039871927
aF394.1782320874577
aa(lp248
F-46.59670980787908
aF-48.17919078066426
aF390.7252025758781
aa(lp249
F-42.77647410504831
aF-48.9890777513183
aF388.1205446289611
aa(lp250
F-37.64198530222281
aF-48.89538843202558
aF387.0689586602791
aa(lp251
F-33.03043011915743
aF-48.28585336031142
aF389.0529801143272
aa(lp252
F-29.82880527188664
aF-47.75777706470554
aF392.7853344761067
aa(lp253
F-28.36656093866991
aF-46.3847087439644
aF397.1071610564097
aa(lp254
F-31.05819637678535
aF-43.98985928870974
aF395.5655185804366
aa(lp255
F-34.64744543383984
aF-42.49248675858718
aF393.8517162696433
aa(lp256
F-38.73521337259842
aF-42.14565181274303
aF392.8472428959458
aa(lp257
F-42.97761912517638
aF-42.89713990628851
aF392.7592739428814
aa(lp258
F-46.81162808388028
aF-44.40754883696342
aF393.571198958698
aasg5
(lp259
g216
ag217
ag218
ag219
ag220
ag221
ag222
ag223
ag247
ag248
ag249
ag250
ag251
ag252
ag253
ag254
ag255
ag256
ag257
ag258
a(lp260
F-38.92128005332267
aF-45.18869922840637
aF392.5652048968374
aa(lp261
F-37.30057928647511
aF-44.50426336988816
aF393.4863369173878
aa(lp262
F-35.30823139752205
aF-45.10316372885122
aF393.6043180485432
aa(lp263
F-34.12205104458757
aF-46.63226844919933
aF392.8500868101141
aa(lp264
F-34.43559274249279
aF-48.18665354232487
aF391.6656001314731
aa(lp265
F-36.05447469121764
aF-48.85809760641007
aF390.7446770530507
aa(lp266
F-38.03166844143756
aF-48.26245114931162
aF390.6266148038999
aa(lp267
F-39.21966533990739
aF-46.74634373972402
aF391.3806411719367
aasg75
(lp268
g225
ag226
ag227
ag228
ag229
ag230
ag231
ag232
ag234
ag235
ag236
ag237
ag238
ag239
ag240
ag241
ag242
ag243
ag244
ag245
a(F325.6404804199009
F213.666509414121
tp269
a(F328.9036699875814
F215.1731727487558
tp270
a(F332.7213337510296
F214.0574143994363
tp271
a(F334.8567325229828
F210.9731612359184
tp272
a(F334.0593236980726
F207.7274334416597
tp273
a(F330.7966106605671
F206.221183916902
tp274
a(F326.979498451744
F207.3364768548732
tp275
a(F324.8436281445806
F210.4203066870878
tp276
asba.