(lp0
(iclm_utils
FaceModel
p1
(dp2
S'pose'
p3
(lp4
F-27.8343
aF-37.5004
aF391.936
aF0.183022
aF0.273148
aF0.000546549
asS'pts_3d'
p5
(lp6
(lp7
F-90.34076738087963
aF-79.61451192393865
aF444.8280167114516
aa(lp8
F-90.27890429656209
aF-59.73676362021921
aF445.8823478259636
aa(lp9
F-87.15765424365635
aF-39.90792383302249
aF447.9797429324033
aa(lp10
F-81.35593351743368
aF-20.18831746239557
aF448.8226052401114
aa(lp11
F-74.02361147804481
aF-1.373151519309387
aF443.6106006253187
aa(lp12
F-63.7179909270638
aF14.78281502955
aF434.1693628017414
aa(lp13
F-52.64382391849515
aF27.78021238701009
aF423.2689535575655
aa(lp14
F-40.38104421042225
aF36.89854053226565
aF409.9767052549593
aa(lp15
F-26.21591585497721
aF38.1799049150254
aF398.8874995034246
aa(lp16
F-10.04824245023659
aF35.91874300274543
aF396.9110591286985
aa(lp17
F5.852037302464472
aF27.42110273165088
aF399.5596947227641
aa(lp18
F22.41170546080426
aF16.18459802874878
aF403.0313845570839
aa(lp19
F36.01064413469162
aF1.761584758964844
aF402.1508274017098
aa(lp20
F45.23366857059506
aF-15.6812960788532
aF399.9212103320993
aa(lp21
F50.92782550970046
aF-35.20132458300844
aF398.6343300069376
aa(lp22
F54.42912230520883
aF-55.44484407387827
aF398.1621175936256
aa(lp23
F56.4965161512194
aF-75.90109441200472
aF398.3514464743385
aa(lp24
F-86.87011437446756
aF-104.0581725925709
aF419.9839229409349
aa(lp25
F-77.45859538369882
aF-108.1986715221186
aF410.3895490684664
aa(lp26
F-66.54731498845132
aF-106.6555171500233
aF400.1021219371049
aa(lp27
F-56.06030185416747
aF-102.8777765534133
aF389.7829282503237
aa(lp28
F-46.76942676974239
aF-98.05335967332792
aF382.4094926727311
aa(lp29
F-18.35745869750191
aF-96.00268100078371
aF370.3846409022777
aa(lp30
F-5.336397468219019
aF-100.1400174951287
aF369.2416890126611
aa(lp31
F7.16475435244165
aF-101.6595600972096
aF369.3822552037216
aa(lp32
F18.92914379942041
aF-99.45896888529164
aF368.5708744474177
aa(lp33
F29.36082516831417
aF-93.72043454587073
aF369.7318302164415
aa(lp34
F-32.95757845132907
aF-78.79698594045095
aF376.4400211036303
aa(lp35
F-34.5557191729934
aF-65.53022892980303
aF370.6446430412046
aa(lp36
F-36.23051000915549
aF-52.59631046169414
aF364.4392489425659
aa(lp37
F-37.78329008782243
aF-39.904730310132
aF358.543498656168
aa(lp38
F-46.76941219629716
aF-31.1899908026583
aF380.1901014638933
aa(lp39
F-40.73048290987011
aF-28.47244142330056
aF375.1400551649047
aa(lp40
F-34.16320125163687
aF-26.57246820032519
aF371.3075465432247
aa(lp41
F-26.80155286172325
aF-28.27853986849702
aF369.5882357559007
aa(lp42
F-19.77486584098745
aF-30.39146511578463
aF368.938240764488
aa(lp43
F-74.91765483544312
aF-81.72119364227322
aF415.956732916537
aa(lp44
F-67.72572486403013
aF-86.57897399985502
aF408.2434628592206
aa(lp45
F-57.32540897799073
aF-85.18233628072572
aF401.8932694137338
aa(lp46
F-49.14129767411577
aF-77.56310441424633
aF397.2791631487264
aa(lp47
F-57.803274088876
aF-75.43250222652392
aF401.9457417991594
aa(lp48
F-67.96741549398108
aF-76.27829347002682
aF408.3473825442976
aa(lp49
F-8.928070287303054
aF-74.96445552239152
aF377.9473736776293
aa(lp50
F-1.105628311199789
aF-81.50124261195315
aF375.6969006884442
aa(lp51
F8.742004312039029
aF-81.00695535134027
aF373.047751226839
aa(lp52
F17.28392190615992
aF-76.19850064474205
aF374.0805578506282
aa(lp53
F9.59977214760593
aF-71.80628081023926
aF372.2234950530811
aa(lp54
F-0.05159921837666461
aF-71.92536828831423
aF374.6178777717122
aa(lp55
F-53.10757500329336
aF-3.005851193855337
aF401.1716249891072
aa(lp56
F-45.67024951823809
aF-7.946180620065463
aF386.8129902557918
aa(lp57
F-38.25514596655813
aF-10.87980997978458
aF378.7526156303626
aa(lp58
F-32.15597905677383
aF-9.228515300929123
aF375.1063774434389
aa(lp59
F-25.2650559324474
aF-10.98522446667294
aF372.5102811182294
aa(lp60
F-13.81749936853625
aF-8.270431666733232
aF374.7120525313016
aa(lp61
F-2.249981785674468
aF-4.352382185860423
aF379.9087489465438
aa(lp62
F-12.48541938259472
aF3.262727014568012
aF376.9132213110448
aa(lp63
F-23.16606678414622
aF6.544196055320408
aF376.1402272636317
aa(lp64
F-30.82880668711119
aF7.378755503814258
aF378.3206360272938
aa(lp65
F-37.71913654097173
aF6.788314277769059
aF381.9900259654173
aa(lp66
F-45.37615188897193
aF3.867619657234489
aF390.0267089946119
aa(lp67
F-49.19481425998946
aF-2.517535674381723
aF396.027286902755
aa(lp68
F-38.00804292868784
aF-4.201132698085766
aF380.8029069213309
aa(lp69
F-31.63637773649697
aF-3.724514478941295
aF377.0929273026043
aa(lp70
F-24.58228615267563
aF-4.54038035184321
aF374.4799751437391
aa(lp71
F-6.625302314593767
aF-3.757052365069522
aF379.2608369047462
aa(lp72
F-24.43035361366841
aF-2.58636227934721
aF375.4872907062929
aa(lp73
F-31.56773827138661
aF-1.821294051756747
aF377.9894375953405
aa(lp74
F-38.03325404037659
aF-2.602975377945998
aF381.7581495145482
aasS'pts_2d'
p75
(lp76
(F247.6814117137523
F165.7663598071277
tp77
a(F248.1456407669905
F199.5192948686731
tp78
a(F254.0821505569599
F233.1868385859509
tp79
a(F264.0510762477474
F266.2645376591573
tp80
a(F274.8503563028584
F297.678451240727
tp81
a(F289.9312174242015
F325.5363741020697
tp82
a(F306.7191968439481
F349.2243976675788
tp83
a(F326.1280390577744
F367.5011654186283
tp84
a(F350.7080645151576
F371.7869793410841
tp85
a(F381.0129204910014
F367.8717728631594
tp86
a(F410.9846614531371
F351.4712252521061
tp87
a(F441.7058813275185
F330.1178741573718
tp88
a(F467.1588400688291
F303.2853061070639
tp89
a(F484.8298378567478
F270.5917771918788
tp90
a(F495.8168081800948
F233.7714003788965
tp91
a(F502.5256796794778
F195.5610510946448
tp92
a(F506.3693567286799
F157.0964877551394
tp93
a(F244.8688575395456
F114.1747215037945
tp94
a(F258.4419445630616
F102.2634742385931
tp95
a(F275.2556322378508
F100.0719479436004
tp96
a(F292.1316883236518
F102.0479430399581
tp97
a(F308.2735372698344
F107.6930066745701
tp98
a(F362.8275784071753
F105.6020612107812
tp99
a(F389.1607632067054
F96.59660499827467
tp100
a(F414.5474388350561
F93.58870384594735
tp101
a(F438.5186644789826
F97.61225903754706
tp102
a(F459.5583530456242
F109.8883564656713
tp103
a(F334.3369927404926
F143.0088828438643
tp104
a(F330.076449595782
F167.399481902431
tp105
a(F325.4391984790065
F191.7590985034454
tp106
a(F320.9650497859353
F216.5274287645094
tp107
a(F307.7381051948452
F238.4715882609182
tp108
a(F318.5694468990407
F243.0763770131439
tp109
a(F330.9941282441861
F246.3265658460732
tp110
a(F345.612000865827
F242.6147727402761
tp111
a(F359.800455084275
F238.218389100552
tp112
a(F264.9180631538024
F152.6507918216506
tp113
a(F275.5784274112465
F140.9423875520003
tp114
a(F293.0212073563434
F141.0355259152765
tp115
a(F307.2290301774792
F153.5731704385734
tp116
a(F292.1435132697115
F159.2487224353741
tp117
a(F275.1661849700825
F159.9018322437414
tp118
a(F382.2831082266266
F151.2402901633882
tp119
a(F397.7928451582104
F137.299876983401
tp120
a(F417.5755066542204
F137.1382314631303
tp121
a(F434.6528071496196
F147.2284263798165
tp122
a(F419.3427583330754
F155.3161975978989
tp123
a(F399.8966962975374
F156.0025310668474
tp124
a(F300.7141114390842
F294.3804889105686
tp125
a(F311.4489740480847
F284.5929800312339
tp126
a(F324.2477588513357
F278.4559706043009
tp127
a(F335.7062802905373
F281.5482036779274
tp128
a(F349.1321638359789
F277.8827088335052
tp129
a(F372.3437651487431
F283.4464258404611
tp130
a(F395.5581798420407
F291.407708697294
tp131
a(F375.1559138616196
F306.4923306548236
tp132
a(F353.8083171414365
F313.0487161056832
tp133
a(F338.8835743719111
F314.627979816204
tp134
a(F325.9421699971561
F313.3281901679488
tp135
a(F312.7441451267403
F307.4372207749648
tp136
a(F306.834422992545
F295.2322685374709
tp137
a(F325.1422936159338
F291.7257734479027
tp138
a(F337.0784186484294
F292.5923143688018
tp139
a(F350.7671548861056
F290.9066292194253
tp140
a(F386.8982603727331
F292.5703130942839
tp141
a(F351.2027020254504
F294.8339883731838
tp142
a(F337.3638484340764
F296.3862203465063
tp143
a(F325.280074396433
F294.8862086220242
tp144
asba(iclm_utils
EyeModel
p145
(dp146
S'iris_pts_3d'
p147
(lp148
(lp149
F-57.06139839833369
aF-69.29078606210392
aF344.583212383467
aa(lp150
F-55.76426113328898
aF-72.96351206329285
aF343.5619684860234
aa(lp151
F-52.07612384434671
aF-74.49791700346148
aF342.3785455536751
aa(lp152
F-48.16414359467808
aF-73.01920224030532
aF341.7261748867922
aa(lp153
F-46.29681105542142
aF-69.39933597021924
aF341.9870098031769
aa(lp154
F-47.23996967112446
aF-65.56673119361442
aF343.2357041823461
aa(lp155
F-51.23993652664671
aF-64.16634965887884
aF344.1916724641708
aa(lp156
F-55.18459357237299
aF-65.63692962707626
aF344.8440431342165
aasS'iris_pts_2d'
p157
(lp158
(F275.8034423594467
F149.1856605923517
tp159
a(F278.2659325353465
F140.7197563554074
tp160
a(F285.9242397326646
F136.8080054133043
tp161
a(F294.2922422961147
F139.7418585264314
tp162
a(F298.4680490889116
F147.8026928343846
tp163
a(F296.7765392072354
F156.7309641858055
tp164
a(F288.3472336217389
F160.1803410883837
tp165
a(F279.979236981713
F157.2464909850644
tp166
asS'lids_pts_2d'
p167
(lp168
(F266.1550112704857
F152.808773102953
tp169
a(F267.8912395248369
F146.3177739165731
tp170
a(F273.0578167060853
F141.7320929195599
tp171
a(F281.2849738430184
F139.4018551150867
tp172
a(F291.3081115898373
F141.2737434785853
tp173
a(F299.9509244212298
F146.3310314152825
tp174
a(F307.1223478231838
F153.7474997512096
tp175
a(F301.2045153250032
F157.9034223629614
tp176
a(F293.0830449502617
F160.2441926134238
tp177
a(F285.0608332909222
F161.6012931970857
tp178
a(F277.043396961902
F161.2437363756368
tp179
a(F270.5660259711035
F158.5270885013179
tp180
asS'lids_pts_3d'
p181
(lp182
(lp183
F-63.00681461951836
aF-69.28948505844713
aF353.0585000842732
aa(lp184
F-61.43720110705179
aF-71.4699448886434
aF348.7876251700329
aa(lp185
F-58.28947814254978
aF-72.67366505799379
aF344.3859832290124
aa(lp186
F-54.01173000967994
aF-73.0672765055805
aF341.2272129199007
aa(lp187
F-49.37192679504442
aF-72.09941083969618
aF340.678091418836
aa(lp188
F-45.59757963026637
aF-70.03496025533883
aF341.814099979115
aa(lp189
F-42.57159266054811
aF-67.03659836625776
aF343.7715504977095
aa(lp190
F-45.25464439675266
aF-65.08931164327979
aF343.5479203246855
aa(lp191
F-48.98443136505844
aF-64.02968314624506
aF343.6155051993669
aa(lp192
F-52.82708656259757
aF-63.60930458922214
aF344.7068223683145
aa(lp193
F-56.85631895817689
aF-64.16223437489742
aF346.8072325112951
aa(lp194
F-60.3781569343345
aF-65.99406157859023
aF349.8588221562384
aasg5
(lp195
g149
ag150
ag151
ag152
ag153
ag154
ag155
ag156
ag183
ag184
ag185
ag186
ag187
ag188
ag189
ag190
ag191
ag192
ag193
ag194
a(lp196
F-53.2834920914455
aF-67.83719628146483
aF344.7857069814809
aa(lp197
F-51.38914722384131
aF-67.12004013020086
aF344.4564130320315
aa(lp198
F-49.61746119604707
aF-67.86509797771724
aF343.8706950655814
aa(lp199
F-49.00471907086136
aF-69.63013194256628
aF343.3716922247498
aa(lp200
F-49.90430536412605
aF-71.38251585289359
aF343.251718020366
aa(lp201
F-51.79077505968097
aF-72.10152503372879
aF343.581004066089
aa(lp202
F-53.56463752748504
aF-71.36466306762111
aF344.1666641502289
aa(lp203
F-54.18524199607462
aF-69.59777929727255
aF344.6656653316726
aasg75
(lp204
g159
ag160
ag161
ag162
ag163
ag164
ag165
ag166
ag169
ag170
ag171
ag172
ag173
ag174
ag175
ag176
ag177
ag178
ag179
ag180
a(F284.0943279857868
F152.4361764977938
tp205
a(F288.1081641690993
F153.8566036424195
tp206
a(F291.7817178636342
F151.9826661193658
tp207
a(F292.9628151202126
F147.9123348271149
tp208
a(F290.9598202772176
F144.0302434655441
tp209
a(F286.9463653837826
F142.6102050598384
tp210
a(F283.2731861326406
F144.4837839455805
tp211
a(F282.0917324098732
F148.553715315032
tp212
asba(iclm_utils
EyeModel
p213
(dp214
g147
(lp215
(lp216
F-2.691112882081097
aF-68.66394828464188
aF324.731503154009
aa(lp217
F-0.8768739161285938
aF-72.60328275857019
aF325.1925715768226
aa(lp218
F3.062544164235468
aF-74.04324630293763
aF325.3622656974691
aa(lp219
F6.810721927643488
aF-72.13318631653235
aF325.1411806584069
aa(lp220
F8.165063204532398
aF-68.00094938496419
aF324.6588255072373
aa(lp221
F6.340973463357173
aF-64.07428911028961
aF324.1977520368415
aa(lp222
F2.413938013551596
aF-62.64442426088102
aF324.0280583293773
aa(lp223
F-1.62186965644479
aF-64.28292576310028
aF324.4784872480898
aasg157
(lp224
(F393.7846046904676
F141.4137196012741
tp225
a(F397.977643111872
F132.5531797823865
tp226
a(F407.0595405962421
F129.321219508476
tp227
a(F415.710226048232
F133.6110804917186
tp228
a(F418.8622545339147
F142.9098240004992
tp229
a(F414.6692260129473
F151.7703576573344
tp230
a(F405.5873356137676
F155.002315423247
tp231
a(F396.2512083539037
F151.4163612780186
tp232
asg167
(lp233
(F385.2423311480312
F149.0870849968771
tp234
a(F390.0205714083545
F141.0343562676086
tp235
a(F397.1388710191278
F135.4515275361538
tp236
a(F408.1871929901777
F132.9943642555173
tp237
a(F419.5769908158269
F136.0570835932108
tp238
a(F427.802979836528
F141.6002902229305
tp239
a(F432.6990724585778
F149.8895910390439
tp240
a(F426.7564686114379
F154.190225742259
tp241
a(F418.8623189536505
F156.0690428461691
tp242
a(F409.8474302359586
F156.4905455469293
tp243
a(F400.2872045215943
F155.2833254199404
tp244
a(F391.4580963045119
F153.3243545642272
tp245
asg181
(lp246
(lp247
F-6.421640360220363
aF-65.6681265573507
aF326.3544072221643
aa(lp248
F-4.3252429602271
aF-68.89823652299145
aF325.0619201670579
aa(lp249
F-1.235205577088579
aF-71.03880749437081
aF323.7897309103514
aa(lp250
F3.528836030978322
aF-71.98260814159494
aF323.2642770738337
aa(lp251
F8.474204520989328
aF-70.96523753157355
aF324.6491481011377
aa(lp252
F12.12155496789721
aF-69.05917280273395
aF326.9853188174742
aa(lp253
F14.3714449503819
aF-65.97445482878763
aF329.6296470317441
aa(lp254
F11.65626683084459
aF-63.52099972441425
aF326.7322100718599
aa(lp255
F8.16071174196438
aF-62.27119024779938
aF324.4846946715832
aa(lp256
F4.245341610801779
aF-61.86859352487471
aF323.3337156809405
aa(lp257
F0.1238320876593063
aF-62.39653830268385
aF323.3725751563189
aa(lp258
F-3.69909102112488
aF-63.51822525647912
aF324.7892231926099
aasg5
(lp259
g216
ag217
ag218
ag219
ag220
ag221
ag222
ag223
ag247
ag248
ag249
ag250
ag251
ag252
ag253
ag254
ag255
ag256
ag257
ag258
a(lp260
F0.7693583700503055
aF-66.52869278657487
aF325.2370424739185
aa(lp261
F2.588353734601034
aF-65.61174593724179
aF325.1383228913109
aa(lp262
F4.495366668967535
aF-66.31285415510388
aF325.2305676624896
aa(lp263
F5.375188823008719
aF-68.22299047627655
aF325.4597248430344
aa(lp264
F4.710806054604293
aF-70.22515585289713
aF325.691543807309
aa(lp265
F2.889502618326395
aF-71.14484607315303
aF325.7902382016664
aa(lp266
F0.9798098899046197
aF-70.44137917650184
aF325.6980078235364
aa(lp267
F0.1022870462665478
aF-68.52850422607202
aF325.4688759681874
aasg75
(lp268
g225
ag226
ag227
ag228
ag229
ag230
ag231
ag232
ag234
ag235
ag236
ag237
ag238
ag239
ag240
ag241
ag242
ag243
ag244
ag245
a(F401.7741483969619
F146.5841430287497
tp269
a(F405.9705828697398
F148.6526933665056
tp270
a(F410.3665686345463
F147.0788248048677
tp271
a(F412.3867603562955
F142.7847166592278
tp272
a(F410.8480082093981
F138.2860473625509
tp273
a(F406.6519088346758
F136.2178227027312
tp274
a(F402.2562539523626
F137.7913493072383
tp275
a(F400.2357069765018
F142.085120991484
tp276
asba.