(lp0
(iclm_utils
FaceModel
p1
(dp2
S'pose'
p3
(lp4
F31.0676
aF47.014
aF401.459
aF0.21879
aF0.250696
aF-0.00151271
asS'pts_3d'
p5
(lp6
(lp7
F-30.19671813356806
aF5.703364956036414
aF430.2120601485547
aa(lp8
F-30.71844459921518
aF24.50855588807467
aF435.2614693239345
aa(lp9
F-28.55788597370908
aF42.99769441361688
aF442.7232820093938
aa(lp10
F-23.97572531219478
aF61.67412664074214
aF449.6733652310247
aa(lp11
F-17.82592387371635
aF80.8080808995004
aF451.0089170138789
aa(lp12
F-8.13904158318815
aF98.24527319391939
aF448.6350011086807
aa(lp13
F2.864903421364041
aF112.9920388721863
aF443.1867227673736
aa(lp14
F16.48231025030119
aF124.3204381688086
aF435.1968683664978
aa(lp15
F31.80083169190034
aF127.5353543805416
aF428.2100058123297
aa(lp16
F48.82765985212912
aF126.0256557380953
aF429.2608828997179
aa(lp17
F65.38407540373002
aF117.5667990623465
aF433.1528573307896
aa(lp18
F82.64081598922364
aF104.5448728444582
aF437.089427781838
aa(lp19
F97.40411498570634
aF87.82395223985806
aF435.954572080337
aa(lp20
F107.1014680133905
aF67.27100094958706
aF431.2214266000797
aa(lp21
F111.7741859036293
aF44.49213600225203
aF424.8874616293939
aa(lp22
F113.613386144952
aF21.51136380551305
aF417.299958870925
aa(lp23
F114.1165717659553
aF-0.9634075350478303
aF410.9642366646999
aa(lp24
F-25.08081962893078
aF-14.17834772474811
aF409.199578156689
aa(lp25
F-17.48016937245112
aF-19.262435329703
aF399.3983398202007
aa(lp26
F-6.910083674036879
aF-18.26900388268424
aF390.0141617228725
aa(lp27
F3.822653733885991
aF-15.02115544946987
aF381.9286001019546
aa(lp28
F13.257183334109
aF-11.01053719077904
aF376.2310508256354
aa(lp29
F39.87538585741166
aF-10.74025979845986
aF369.4221964474397
aa(lp30
F52.434908405533
aF-15.4055702500834
aF368.5332081746763
aa(lp31
F64.67051478731307
aF-17.61648481124271
aF369.8028047220413
aa(lp32
F76.92321503892018
aF-16.0312859961097
aF371.3596665018183
aa(lp33
F88.00408311155881
aF-10.52988996053831
aF375.7876360398118
aa(lp34
F26.09643834158282
aF6.274556086932367
aF376.4036536317242
aa(lp35
F24.99877098195697
aF19.31895493072415
aF373.5253452280149
aa(lp36
F23.72388263267245
aF32.25886178530733
aF370.5090977262286
aa(lp37
F22.44849462321967
aF45.22047432219728
aF367.9332147802692
aa(lp38
F13.12560324915953
aF53.03588280971628
aF388.7247496359715
aa(lp39
F19.11826488657333
aF56.1246638087681
aF385.7255909737648
aa(lp40
F25.83577137934074
aF58.16328999533722
aF383.7608694934195
aa(lp41
F33.46498654566724
aF56.12750453101311
aF383.6125258231177
aa(lp42
F40.58965712014837
aF53.94128770341946
aF383.8354593202117
aa(lp43
F-13.90546964260277
aF4.852926044603992
aF408.4285669653383
aa(lp44
F-6.641738863134123
aF1.027646234065952
aF401.3135996526345
aa(lp45
F3.109440821511652
aF1.816314534880629
aF396.9945435520454
aa(lp46
F11.02716958548387
aF7.68139518644583
aF394.3309353414912
aa(lp47
F2.797266459175556
aF10.00968808340279
aF398.4748252542206
aa(lp48
F-6.682511169993742
aF9.627715311959271
aF402.9975297507132
aa(lp49
F49.61295568099239
aF8.778662161114323
aF381.7155147619829
aa(lp50
F57.37237411442401
aF3.320079567121899
aF379.3920483086079
aa(lp51
F66.94106645494205
aF3.513910036124385
aF378.5932985421957
aa(lp52
F75.29030864181772
aF7.087400283955929
aF381.3727971985636
aa(lp53
F68.08832826064753
aF11.49473186314824
aF380.0709519688204
aa(lp54
F58.63971629375592
aF11.57871376939128
aF380.8373009531833
aa(lp55
F6.682055493582273
aF82.66791746676905
aF413.42529786092
aa(lp56
F14.07120530028278
aF77.56656803616015
aF400.6088070381349
aa(lp57
F21.37996405016031
aF74.54898905747896
aF393.7893352379269
aa(lp58
F27.54761056891013
aF76.54826303644711
aF391.5666282590181
aa(lp59
F34.36635130010882
aF74.80277632706273
aF389.5425148308031
aa(lp60
F45.29523999110023
aF77.97482690722258
aF393.7394523743747
aa(lp61
F56.11022639153376
aF82.37417263362543
aF400.5681773192532
aa(lp62
F46.49862563924557
aF90.56459609397855
aF398.1870739253038
aa(lp63
F36.35577566805134
aF93.68490297496051
aF397.4529173526919
aa(lp64
F28.61421707041539
aF94.16927898149814
aF398.7020854818137
aa(lp65
F21.58856151204179
aF93.25836737683544
aF401.1649781333472
aa(lp66
F14.01891316940186
aF89.80197110730475
aF406.3369778663711
aa(lp67
F10.81714497311654
aF83.22755144131585
aF408.77367896742
aa(lp68
F21.32630828125987
aF81.66567338539639
aF397.6649616276481
aa(lp69
F27.86440426897746
aF82.42099313684683
aF395.0804897530725
aa(lp70
F34.83008742580289
aF81.92710168798459
aF393.2441047104434
aa(lp71
F51.80804881891774
aF82.84854597784349
aF399.258373748067
aa(lp72
F34.70559741068059
aF83.3489383953014
aF394.2196185777725
aa(lp73
F27.6597751029446
aF83.75879241949289
aF395.8966925132953
aa(lp74
F21.04552552030326
aF82.65856922627191
aF398.529236779648
aasS'pts_2d'
p75
(lp76
(F347.3572670362711
F309.9428261391609
tp77
a(F347.0689802035631
F342.2307468304207
tp78
a(F351.6212149876786
F372.8406933194185
tp79
a(F360.011431909231
F402.8648760568514
tp80
a(F370.3565885264396
F434.3788523648198
tp81
a(F386.3936581579546
F464.2403172141038
tp82
a(F404.8482444433491
F491.2151804209654
tp83
a(F428.4049210513058
F514.248620346424
tp84
a(F455.6984270455796
F523.3752469280857
tp85
a(F485.3111623908485
F520.1906709157392
tp86
a(F513.2118967308305
F503.5657800807775
tp87
a(F541.8030454464658
F479.3881289493905
tp88
a(F567.5704096660274
F451.0890546819532
tp89
a(F586.2757647349893
F417.000797270172
tp90
a(F597.3008078568411
F378.5363302407711
tp91
a(F604.1937407309218
F338.6616928930133
tp92
a(F608.2600411147116
F298.2418040626844
tp93
a(F354.0307084224432
F274.0132655036872
tp94
a(F367.1753091531622
F263.8285264185603
tp95
a(F386.711860070327
F264.8685759217403
tp96
a(F407.5066132770606
F270.502689287749
tp97
a(F426.4276100517546
F278.0509799099187
tp98
a(F480.9549065558484
F278.1951519797458
tp99
a(F506.7100072173416
F268.6482047444524
tp100
a(F531.158783738651
F264.2718674933713
tp101
a(F555.3545430031445
F267.6231277070489
tp102
a(F575.6392600598402
F278.9843605456805
tp103
a(F451.9982432884055
F312.5023150540499
tp104
a(F450.1949291420172
F338.7904499203349
tp105
a(F448.0228746978074
F365.2997361939482
tp106
a(F445.7593125357532
F392.1780213887521
tp107
a(F425.324352118275
F402.3266775386364
tp108
a(F437.1733143987982
F409.1280922023115
tp109
a(F450.4919341049122
F413.6709627380363
tp110
a(F465.4273211110509
F409.734759854192
tp111
a(F479.3106579939898
F405.3992402088483
tp112
a(F374.4652968095712
F308.9114592558896
tp113
a(F387.5875022634113
F301.9205296711016
tp114
a(F405.8743392170276
F303.4313718495274
tp115
a(F420.9731888824567
F314.6096739401014
tp116
a(F405.2649495311108
F318.8400008903011
tp117
a(F387.5634885886383
F317.9176941566766
tp118
a(F497.4802315382602
F317.2484386047058
tp119
a(F513.4164007328293
F306.5632890474182
tp120
a(F532.6114329929453
F306.961117740967
tp121
a(F548.0643923639973
F313.9379375037055
tp122
a(F534.3597713294199
F322.6827355595132
tp123
a(F515.4818267807318
F322.8024810209203
tp124
a(F412.1220003858415
F449.968902292318
tp125
a(F426.3434147971876
F445.2162933142463
tp126
a(F440.7196731926017
F441.9838903441289
tp127
a(F452.7642205326438
F446.6192293572023
tp128
a(F466.1667532907848
F444.0204345080661
tp129
a(F486.2789588101131
F448.527458520494
tp130
a(F505.0574463385552
F454.2324951739236
tp131
a(F487.5818717208691
F470.5817479229015
tp132
a(F468.6039290707796
F476.7849075035717
tp133
a(F453.8263118861726
F477.1421866298343
tp134
a(F440.3610036184398
F474.3516491845339
tp135
a(F425.8755305319742
F465.7527667900998
tp136
a(F419.8468226974174
F452.7022574904142
tp137
a(F440.2216256254467
F454.0222573000982
tp138
a(F452.8963179497794
F456.4636737472668
tp139
a(F466.4283717325831
F456.2523774163947
tp140
a(F497.3205301855649
F455.6295711473064
tp141
a(F466.0271504292863
F458.5707581525236
tp142
a(F452.3996075731595
F458.6754714110425
tp143
a(F439.6059879264384
F455.5567852954818
tp144
asba(iclm_utils
EyeModel
p145
(dp146
S'iris_pts_3d'
p147
(lp148
(lp149
F-5.412520516111352
aF6.664480740727949
aF356.4607212742806
aa(lp150
F-3.933514134953849
aF2.657004965274427
aF355.519307919193
aa(lp151
F-0.07101604509066729
aF0.9326436406978993
aF354.7822070818077
aa(lp152
F3.917066789209883
aF2.482713597826638
aF354.6812042200818
aa(lp153
F5.713335305475132
aF6.404288767141533
aF355.2754619835273
aa(lp154
F4.591225293995281
aF10.66035441687233
aF356.50770828064
aa(lp155
F0.3917620388953173
aF12.16988546696304
aF356.9539687105412
aa(lp156
F-3.622877987550492
aF10.61261891396943
aF357.0549715899867
aasS'iris_pts_2d'
p157
(lp158
(F388.6119559749193
F314.0221916672271
tp159
a(F391.7018976592801
F305.605191278131
tp160
a(F399.8498739994429
F301.9715834575721
tp161
a(F408.2829314239175
F305.2498840542297
tp162
a(F412.0610679251049
F313.5196969375241
tp163
a(F409.6587504015084
F322.4266281680519
tp164
a(F400.8231356279155
F325.5702832866493
tp165
a(F392.3900835813511
F322.2919853210084
tp166
asS'lids_pts_2d'
p167
(lp168
(F375.8953515773608
F310.6650759425801
tp169
a(F380.4331753328875
F303.8722394013411
tp170
a(F387.536239278399
F299.9696760340144
tp171
a(F397.1463382748499
F298.5960925841972
tp172
a(F407.1278303314472
F301.4671915139952
tp173
a(F414.3441177784404
F306.3805432182761
tp174
a(F419.8760228012669
F313.3806878226672
tp175
a(F413.5551925847997
F317.9829563158953
tp176
a(F404.4371042495432
F319.6019479734518
tp177
a(F395.140316858681
F319.9755048594146
tp178
a(F386.8949082457974
F318.9165395199148
tp179
a(F380.1693365276333
F316.062377676468
tp180
asS'lids_pts_3d'
p181
(lp182
(lp183
F-11.68957770456773
aF5.172041166915118
aF363.713385265209
aa(lp184
F-9.378734685768627
aF1.856034722179438
aF359.4886310883726
aa(lp185
F-5.912874824597903
aF-0.01438585183582632
aF355.8040159390009
aa(lp186
F-1.344827332067526
aF-0.6616106764947982
aF353.4478141404743
aa(lp187
F3.359800922956056
aF0.6915809122344164
aF353.5228218185483
aa(lp188
F6.787565179653102
aF3.019241311636175
aF354.8962692143563
aa(lp189
F9.457790986823722
aF6.367055922206794
aF356.8794074670541
aa(lp190
F6.432122080909658
aF8.533155812866129
aF355.8851363050197
aa(lp191
F2.101079549296683
aF9.282011351803979
aF355.1437093538558
aa(lp192
F-2.305672883683465
aF9.47736273187118
aF355.8369162095712
aa(lp193
F-6.247983054744794
aF9.018648674240357
aF357.5699719581021
aa(lp194
F-9.529372450280373
aF7.71857076438324
aF360.4029359718294
aasg5
(lp195
g149
ag150
ag151
ag152
ag153
ag154
ag155
ag156
ag183
ag184
ag185
ag186
ag187
ag188
ag189
ag190
ag191
ag192
ag193
ag194
a(lp196
F-1.457241827635778
aF8.247892036238495
aF357.186967057153
aa(lp197
F0.3466694056554791
aF8.952232747412681
aF357.1371173579658
aa(lp198
F2.089944516946981
aF8.169839160088396
aF356.803041936528
aa(lp199
F2.750374103232775
aF6.362929592713642
aF356.380451031106
aa(lp200
F1.94498691313007
aF4.591080737648783
aF356.1169135125774
aa(lp201
F0.1466014443766323
aF3.888297247547514
aF356.1667896036419
aa(lp202
F-1.595224120657275
aF4.665163959497539
aF356.5008366194589
aa(lp203
F-2.261168515580562
aF6.470509867302703
aF356.9233956320172
aasg75
(lp204
g159
ag160
ag161
ag162
ag163
ag164
ag165
ag166
ag169
ag170
ag171
ag172
ag173
ag174
ag175
ag176
ag177
ag178
ag179
ag180
a(F396.940170074705
F317.3184343150714
tp205
a(F400.7280174521345
F318.7999909116973
tp206
a(F404.393063408885
F317.1730020484419
tp207
a(F405.7881417778568
F313.3907378497557
tp208
a(F404.0962395480158
F309.6690452561585
tp209
a(F400.3087067253093
F308.187801391887
tp210
a(F396.6439964016969
F309.8144874014923
tp211
a(F395.2486264351417
F313.5964256192393
tp212
asba(iclm_utils
EyeModel
p213
(dp214
g147
(lp215
(lp216
F50.47229663185692
aF6.390635683750026
aF344.4625141493008
aa(lp217
F51.97090472761632
aF2.707199874595966
aF342.3834430164993
aa(lp218
F55.9782063241664
aF1.307728571845409
aF341.4784484912191
aa(lp219
F60.18170224826086
aF2.980884692331772
aF342.2776632392786
aa(lp220
F62.15408876566996
aF6.778400308409211
aF344.3129196267781
aa(lp221
F60.70503894758086
aF10.50686411791897
aF346.3919858132526
aa(lp222
F56.64834827011073
aF11.95035312071042
aF347.2969816536401
aa(lp223
F52.160129912596
aF10.36772168603352
aF346.892896113721
aasg157
(lp224
(F509.8935905039742
F313.9143638739602
tp225
a(F513.8436432623697
F305.9301930258617
tp226
a(F522.9467186834908
F302.8722059421834
tp227
a(F531.8703542002444
F306.5317248519543
tp228
a(F535.3872129596007
F314.7650580083302
tp229
a(F531.4371610064651
F322.7492217232982
tp230
a(F522.3340928570311
F325.8072062643821
tp231
a(F512.7728410489627
F322.415539065914
tp232
asg167
(lp233
(F500.8462580043765
F314.1272618186244
tp234
a(F504.8687068662072
F310.3322436208354
tp235
a(F511.4997661119974
F308.5708694372369
tp236
a(F522.4717030432128
F308.2613212794409
tp237
a(F534.0246893031627
F309.5973832565458
tp238
a(F542.3080333107125
F311.0157397154934
tp239
a(F547.528827885813
F314.4614909537393
tp240
a(F542.022896454533
F318.7745176062779
tp241
a(F534.4126491695318
F321.6023753773084
tp242
a(F525.6053894678919
F322.9254745908941
tp243
a(F515.381050725679
F321.8280513321647
tp244
a(F506.6568085336403
F318.6723727585986
tp245
asg181
(lp246
(lp247
F46.71080492521698
aF6.543582121892834
aF347.3912110094595
aa(lp248
F48.1838549138665
aF4.747339243881553
aF344.6012854101944
aa(lp249
F50.88883934098216
aF3.911771414533488
aF342.3023279474834
aa(lp250
F55.68959724587673
aF3.756538394901914
aF341.0354955190789
aa(lp251
F61.18212225114814
aF4.38119482869973
aF342.3741694678807
aa(lp252
F65.4603013308869
aF5.067132363388049
aF344.9926533027945
aa(lp253
F68.59764123821532
aF6.724273366979682
aF348.7334080121772
aa(lp254
F65.76955910542989
aF8.69431462255335
aF347.318429355255
aa(lp255
F61.98622629800605
aF9.962230020653745
aF345.8727285768179
aa(lp256
F57.76951707311465
aF10.54408255408866
aF344.9464866785161
aa(lp257
F53.08834999259123
aF10.04337559321862
aF345.0849359060482
aa(lp258
F49.27097829956245
aF8.625854135698017
aF346.4685867945928
aasg5
(lp259
g216
ag217
ag218
ag219
ag220
ag221
ag222
ag223
ag247
ag248
ag249
ag250
ag251
ag252
ag253
ag254
ag255
ag256
ag257
ag258
a(lp260
F54.72756762875682
aF7.831187648818391
aF346.0528740924521
aa(lp261
F56.60112559563108
aF8.585446750226534
aF346.4047034527648
aa(lp262
F58.38848905093855
aF7.95357779149786
aF346.0054242474465
aa(lp263
F59.03569865242791
aF6.311961599155104
aF345.0890343732215
aa(lp264
F58.17067334758009
aF4.628584554530614
aF344.192425801642
aa(lp265
F56.30707233840165
aF3.883306114208896
aF343.8407144181982
aa(lp266
F54.52952731063971
aF4.506352798000348
aF344.2398414727748
aa(lp267
F53.87236273247029
aF6.138986040244099
aF345.1561145156903
aasg75
(lp268
g225
ag226
ag227
ag228
ag229
ag230
ag231
ag232
ag234
ag235
ag236
ag237
ag238
ag239
ag240
ag241
ag242
ag243
ag244
ag245
a(F518.610995008242
F316.9725240745859
tp269
a(F522.5469624794279
F318.5883303502775
tp270
a(F526.5626597717336
F317.2401440139198
tp271
a(F528.3053634831949
F313.7181154074181
tp272
a(F526.7546922599275
F310.0857490045366
tp273
a(F522.8193825889927
F308.4704325681291
tp274
a(F518.8042189073988
F309.818051809577
tp275
a(F517.060861303432
F313.3395855862023
tp276
asba.